---
triple:          'arm64-apple-darwin'
binary-path:     '/Users/kim_hngm/CppWorkspace/BOJ/BOJ_15624/main'
relocations:
  - { offsetInCU: 0x5FC2, offset: 0x5FC2, size: 0x8, addend: 0x0, symName: __ZNSt3__119__debug_db_insert_cB7v160006INS_6vectorIyNS_9allocatorIyEEEEEEvPT_, symObjAddr: 0x3D4, symBinAddr: 0x100001B50, symSize: 0x10 }
  - { offsetInCU: 0x5FF3, offset: 0x5FF3, size: 0x8, addend: 0x0, symName: __ZNSt3__118__debug_db_erase_cB7v160006INS_6vectorIyNS_9allocatorIyEEEEEEvPT_, symObjAddr: 0x690, symBinAddr: 0x100001E0C, symSize: 0x10 }
  - { offsetInCU: 0x6024, offset: 0x6024, size: 0x8, addend: 0x0, symName: __ZNSt3__112__to_addressB7v160006IyEEPT_S2_, symObjAddr: 0x7D4, symBinAddr: 0x100001F50, symSize: 0x14 }
  - { offsetInCU: 0x6059, offset: 0x6059, size: 0x8, addend: 0x0, symName: __ZNSt3__130__libcpp_is_constant_evaluatedB7v160006Ev, symObjAddr: 0x938, symBinAddr: 0x1000020B4, symSize: 0xC }
  - { offsetInCU: 0x6076, offset: 0x6076, size: 0x8, addend: 0x0, symName: __ZNSt3__119__libcpp_deallocateB7v160006EPvmm, symObjAddr: 0x944, symBinAddr: 0x1000020C0, symSize: 0x30 }
  - { offsetInCU: 0x60BE, offset: 0x60BE, size: 0x8, addend: 0x0, symName: __ZNSt3__127__do_deallocate_handle_sizeB7v160006IJEEEvPvmDpT_, symObjAddr: 0x974, symBinAddr: 0x1000020F0, symSize: 0x28 }
  - { offsetInCU: 0x60FC, offset: 0x60FC, size: 0x8, addend: 0x0, symName: __ZNSt3__124__libcpp_operator_deleteB7v160006IJPvEEEvDpT_, symObjAddr: 0x99C, symBinAddr: 0x100002118, symSize: 0x24 }
  - { offsetInCU: 0x6131, offset: 0x6131, size: 0x8, addend: 0x0, symName: __ZNSt3__13maxB7v160006ImEERKT_S3_S3_, symObjAddr: 0x1024, symBinAddr: 0x1000027A0, symSize: 0x2C }
  - { offsetInCU: 0x6174, offset: 0x6174, size: 0x8, addend: 0x0, symName: __ZNSt3__13minB7v160006ImEERKT_S3_S3_, symObjAddr: 0x1050, symBinAddr: 0x1000027CC, symSize: 0x2C }
  - { offsetInCU: 0x63B8, offset: 0x63B8, size: 0x8, addend: 0x0, symName: __ZNSt3__13minB7v160006ImNS_6__lessImmEEEERKT_S5_S5_T0_, symObjAddr: 0x10DC, symBinAddr: 0x100002858, symSize: 0x54 }
  - { offsetInCU: 0x644D, offset: 0x644D, size: 0x8, addend: 0x0, symName: __ZNSt3__120__throw_length_errorB7v160006EPKc, symObjAddr: 0x11B8, symBinAddr: 0x100002934, symSize: 0x64 }
  - { offsetInCU: 0x6475, offset: 0x6475, size: 0x8, addend: 0x0, symName: __ZNSt3__13maxB7v160006ImNS_6__lessImmEEEERKT_S5_S5_T0_, symObjAddr: 0x129C, symBinAddr: 0x100002A18, symSize: 0x54 }
  - { offsetInCU: 0x64CF, offset: 0x64CF, size: 0x8, addend: 0x0, symName: __ZNSt3__119__allocate_at_leastB7v160006INS_9allocatorIyEEEENS_19__allocation_resultINS_16allocator_traitsIT_E7pointerEEERS5_m, symObjAddr: 0x1400, symBinAddr: 0x100002B7C, symSize: 0x40 }
  - { offsetInCU: 0x6512, offset: 0x6512, size: 0x8, addend: 0x0, symName: __ZNSt3__117__libcpp_allocateB7v160006Emm, symObjAddr: 0x15B0, symBinAddr: 0x100002D2C, symSize: 0x28 }
  - { offsetInCU: 0x654F, offset: 0x654F, size: 0x8, addend: 0x0, symName: __ZNSt3__121__libcpp_operator_newB7v160006IJmEEEPvDpT_, symObjAddr: 0x15D8, symBinAddr: 0x100002D54, symSize: 0x24 }
  - { offsetInCU: 0x6588, offset: 0x6588, size: 0x8, addend: 0x0, symName: __ZNSt3__142__uninitialized_allocator_move_if_noexceptB7v160006INS_9allocatorIyEENS_16reverse_iteratorIPyEES5_yvEET1_RT_T0_S9_S6_, symObjAddr: 0x1660, symBinAddr: 0x100002DDC, symSize: 0xE8 }
  - { offsetInCU: 0x6605, offset: 0x6605, size: 0x8, addend: 0x0, symName: __ZNSt3__14swapB7v160006IPyEEvRT_S3_, symObjAddr: 0x1794, symBinAddr: 0x100002F10, symSize: 0x3C }
  - { offsetInCU: 0x6656, offset: 0x6656, size: 0x8, addend: 0x0, symName: __ZNSt3__125__debug_db_invalidate_allB7v160006INS_6vectorIyNS_9allocatorIyEEEEEEvPT_, symObjAddr: 0x187C, symBinAddr: 0x100002FF8, symSize: 0x10 }
  - { offsetInCU: 0x6687, offset: 0x6687, size: 0x8, addend: 0x0, symName: __ZNSt3__1neB7v160006IPyS1_EEbRKNS_16reverse_iteratorIT_EERKNS2_IT0_EE, symObjAddr: 0x188C, symBinAddr: 0x100003008, symSize: 0x48 }
  - { offsetInCU: 0x66F8, offset: 0x66F8, size: 0x8, addend: 0x0, symName: __ZNSt3__114__construct_atB7v160006IyJyEPyEEPT_S3_DpOT0_, symObjAddr: 0x18D4, symBinAddr: 0x100003050, symSize: 0x2C }
  - { offsetInCU: 0x6768, offset: 0x6768, size: 0x8, addend: 0x0, symName: __ZNSt3__112__to_addressB7v160006INS_16reverse_iteratorIPyEEvEENS_5decayIDTclsr19__to_address_helperIT_EE6__callclsr3stdE7declvalIRKS5_EEEEE4typeES7_, symObjAddr: 0x1900, symBinAddr: 0x10000307C, symSize: 0x24 }
  - { offsetInCU: 0x679E, offset: 0x679E, size: 0x8, addend: 0x0, symName: __ZNSt3__14moveB7v160006INS_16reverse_iteratorIPyEES3_EET0_T_S5_S4_, symObjAddr: 0x196C, symBinAddr: 0x1000030E8, symSize: 0x78 }
  - { offsetInCU: 0x6821, offset: 0x6821, size: 0x8, addend: 0x0, symName: __ZNSt3__16__moveB7v160006INS_17_ClassicAlgPolicyENS_16reverse_iteratorIPyEES4_S4_EENS_4pairIT0_T2_EES6_T1_S7_, symObjAddr: 0x1A54, symBinAddr: 0x1000031D0, symSize: 0x64 }
  - { offsetInCU: 0x688D, offset: 0x688D, size: 0x8, addend: 0x0, symName: __ZNSt3__123__dispatch_copy_or_moveB7v160006INS_17_ClassicAlgPolicyENS_11__move_loopIS1_EENS_14__move_trivialENS_16reverse_iteratorIPyEES7_S7_EENS_4pairIT2_T4_EES9_T3_SA_, symObjAddr: 0x1AB8, symBinAddr: 0x100003234, symSize: 0x7C }
  - { offsetInCU: 0x690B, offset: 0x690B, size: 0x8, addend: 0x0, symName: __ZNSt3__121__unwrap_and_dispatchB7v160006INS_10__overloadINS_11__move_loopINS_17_ClassicAlgPolicyEEENS_14__move_trivialEEENS_16reverse_iteratorIPyEES9_S9_Li0EEENS_4pairIT0_T2_EESB_T1_SC_, symObjAddr: 0x1B34, symBinAddr: 0x1000032B0, symSize: 0x12C }
  - { offsetInCU: 0x699B, offset: 0x699B, size: 0x8, addend: 0x0, symName: __ZNSt3__114__unwrap_rangeB7v160006INS_16reverse_iteratorIPyEES3_EENS_4pairIT0_S5_EET_S7_, symObjAddr: 0x1C60, symBinAddr: 0x1000033DC, symSize: 0x84 }
  - { offsetInCU: 0x6AEF, offset: 0x6AEF, size: 0x8, addend: 0x0, symName: __ZNSt3__113__unwrap_iterB7v160006INS_16reverse_iteratorIPyEENS_18__unwrap_iter_implIS3_Lb0EEELi0EEEDTclsrT0_8__unwrapclsr3stdE7declvalIT_EEEES7_, symObjAddr: 0x1D84, symBinAddr: 0x100003500, symSize: 0x44 }
  - { offsetInCU: 0x6B33, offset: 0x6B33, size: 0x8, addend: 0x0, symName: __ZNSt3__19make_pairB7v160006INS_16reverse_iteratorIPyEES3_EENS_4pairINS_18__unwrap_ref_decayIT_E4typeENS5_IT0_E4typeEEEOS6_OS9_, symObjAddr: 0x1DC8, symBinAddr: 0x100003544, symSize: 0x38 }
  - { offsetInCU: 0x6B82, offset: 0x6B82, size: 0x8, addend: 0x0, symName: __ZNSt3__114__rewrap_rangeB7v160006INS_16reverse_iteratorIPyEES3_EET_S4_T0_, symObjAddr: 0x1E00, symBinAddr: 0x10000357C, symSize: 0x5C }
  - { offsetInCU: 0x6BCE, offset: 0x6BCE, size: 0x8, addend: 0x0, symName: __ZNSt3__113__rewrap_iterB7v160006INS_16reverse_iteratorIPyEES3_NS_18__unwrap_iter_implIS3_Lb0EEEEET_S6_T0_, symObjAddr: 0x1E5C, symBinAddr: 0x1000035D8, symSize: 0x88 }
  - { offsetInCU: 0x6EB3, offset: 0x6EB3, size: 0x8, addend: 0x0, symName: __ZSt28__throw_bad_array_new_lengthB7v160006v, symObjAddr: 0x157C, symBinAddr: 0x100002CF8, symSize: 0x34 }
  - { offsetInCU: 0x7342, offset: 0x7342, size: 0x8, addend: 0x0, symName: __ZNSt3__16vectorIyNS_9allocatorIyEEE26__swap_out_circular_bufferERNS_14__split_bufferIyRS2_EE, symObjAddr: 0xE50, symBinAddr: 0x1000025CC, symSize: 0x118 }
  - { offsetInCU: 0x9510, offset: 0x9510, size: 0x8, addend: 0x0, symName: _main, symObjAddr: 0x0, symBinAddr: 0x10000177C, symSize: 0x1C0 }
  - { offsetInCU: 0x9629, offset: 0x9629, size: 0x8, addend: 0x0, symName: __ZNSt3__19basic_iosIcNS_11char_traitsIcEEE3tieB7v160006EPNS_13basic_ostreamIcS2_EE, symObjAddr: 0x1C0, symBinAddr: 0x10000193C, symSize: 0x2C }
  - { offsetInCU: 0x966F, offset: 0x966F, size: 0x8, addend: 0x0, symName: __ZNSt3__16vectorIyNS_9allocatorIyEEEC1B7v160006Ev, symObjAddr: 0x1EC, symBinAddr: 0x100001968, symSize: 0x2C }
  - { offsetInCU: 0x9697, offset: 0x9697, size: 0x8, addend: 0x0, symName: __ZNSt3__16vectorIyNS_9allocatorIyEEE9push_backB7v160006EOy, symObjAddr: 0x218, symBinAddr: 0x100001994, symSize: 0x6C }
  - { offsetInCU: 0x96CD, offset: 0x96CD, size: 0x8, addend: 0x0, symName: __ZNSt3__16vectorIyNS_9allocatorIyEEEixB7v160006Em, symObjAddr: 0x284, symBinAddr: 0x100001A00, symSize: 0x24 }
  - { offsetInCU: 0x9702, offset: 0x9702, size: 0x8, addend: 0x0, symName: __ZNSt3__16vectorIyNS_9allocatorIyEEE9push_backB7v160006ERKy, symObjAddr: 0x2A8, symBinAddr: 0x100001A24, symSize: 0x6C }
  - { offsetInCU: 0x9738, offset: 0x9738, size: 0x8, addend: 0x0, symName: __ZNSt3__16vectorIyNS_9allocatorIyEEED1B7v160006Ev, symObjAddr: 0x314, symBinAddr: 0x100001A90, symSize: 0x2C }
  - { offsetInCU: 0x9761, offset: 0x9761, size: 0x8, addend: 0x0, symName: __ZNSt3__16vectorIyNS_9allocatorIyEEEC2B7v160006Ev, symObjAddr: 0x34C, symBinAddr: 0x100001AC8, symSize: 0x4C }
  - { offsetInCU: 0x9794, offset: 0x9794, size: 0x8, addend: 0x0, symName: __ZNSt3__117__compressed_pairIPyNS_9allocatorIyEEEC1B7v160006IDnNS_18__default_init_tagEEEOT_OT0_, symObjAddr: 0x398, symBinAddr: 0x100001B14, symSize: 0x3C }
  - { offsetInCU: 0x97EB, offset: 0x97EB, size: 0x8, addend: 0x0, symName: __ZNSt3__117__compressed_pairIPyNS_9allocatorIyEEEC2B7v160006IDnNS_18__default_init_tagEEEOT_OT0_, symObjAddr: 0x3E4, symBinAddr: 0x100001B60, symSize: 0x40 }
  - { offsetInCU: 0x9842, offset: 0x9842, size: 0x8, addend: 0x0, symName: __ZNSt3__122__compressed_pair_elemIPyLi0ELb0EEC2B7v160006IDnvEEOT_, symObjAddr: 0x424, symBinAddr: 0x100001BA0, symSize: 0x1C }
  - { offsetInCU: 0x9883, offset: 0x9883, size: 0x8, addend: 0x0, symName: __ZNSt3__122__compressed_pair_elemINS_9allocatorIyEELi1ELb1EEC2B7v160006ENS_18__default_init_tagE, symObjAddr: 0x440, symBinAddr: 0x100001BBC, symSize: 0x2C }
  - { offsetInCU: 0x98B7, offset: 0x98B7, size: 0x8, addend: 0x0, symName: __ZNSt3__19allocatorIyEC2B7v160006Ev, symObjAddr: 0x46C, symBinAddr: 0x100001BE8, symSize: 0x2C }
  - { offsetInCU: 0x98E0, offset: 0x98E0, size: 0x8, addend: 0x0, symName: __ZNSt3__116__non_trivial_ifILb1ENS_9allocatorIyEEEC2B7v160006Ev, symObjAddr: 0x498, symBinAddr: 0x100001C14, symSize: 0x14 }
  - { offsetInCU: 0x9909, offset: 0x9909, size: 0x8, addend: 0x0, symName: __ZNSt3__16vectorIyNS_9allocatorIyEEED2B7v160006Ev, symObjAddr: 0x4AC, symBinAddr: 0x100001C28, symSize: 0x3C }
  - { offsetInCU: 0x9932, offset: 0x9932, size: 0x8, addend: 0x0, symName: __ZNSt3__16vectorIyNS_9allocatorIyEEE16__destroy_vectorC1ERS3_, symObjAddr: 0x4E8, symBinAddr: 0x100001C64, symSize: 0x34 }
  - { offsetInCU: 0x996A, offset: 0x996A, size: 0x8, addend: 0x0, symName: __ZNSt3__16vectorIyNS_9allocatorIyEEE16__destroy_vectorclB7v160006Ev, symObjAddr: 0x51C, symBinAddr: 0x100001C98, symSize: 0x9C }
  - { offsetInCU: 0x998F, offset: 0x998F, size: 0x8, addend: 0x0, symName: __ZNSt3__16vectorIyNS_9allocatorIyEEE16__destroy_vectorC2ERS3_, symObjAddr: 0x5B8, symBinAddr: 0x100001D34, symSize: 0x20 }
  - { offsetInCU: 0x99C7, offset: 0x99C7, size: 0x8, addend: 0x0, symName: __ZNKSt3__16vectorIyNS_9allocatorIyEEE17__annotate_deleteB7v160006Ev, symObjAddr: 0x5D8, symBinAddr: 0x100001D54, symSize: 0xB8 }
  - { offsetInCU: 0x99EC, offset: 0x99EC, size: 0x8, addend: 0x0, symName: __ZNSt3__16vectorIyNS_9allocatorIyEEE7__clearB7v160006Ev, symObjAddr: 0x6A0, symBinAddr: 0x100001E1C, symSize: 0x28 }
  - { offsetInCU: 0x9A11, offset: 0x9A11, size: 0x8, addend: 0x0, symName: __ZNSt3__116allocator_traitsINS_9allocatorIyEEE10deallocateB7v160006ERS2_Pym, symObjAddr: 0x6C8, symBinAddr: 0x100001E44, symSize: 0x34 }
  - { offsetInCU: 0x9A53, offset: 0x9A53, size: 0x8, addend: 0x0, symName: __ZNSt3__16vectorIyNS_9allocatorIyEEE7__allocB7v160006Ev, symObjAddr: 0x6FC, symBinAddr: 0x100001E78, symSize: 0x28 }
  - { offsetInCU: 0x9A78, offset: 0x9A78, size: 0x8, addend: 0x0, symName: __ZNKSt3__16vectorIyNS_9allocatorIyEEE8capacityB7v160006Ev, symObjAddr: 0x724, symBinAddr: 0x100001EA0, symSize: 0x40 }
  - { offsetInCU: 0x9A9D, offset: 0x9A9D, size: 0x8, addend: 0x0, symName: __ZNKSt3__16vectorIyNS_9allocatorIyEEE31__annotate_contiguous_containerB7v160006EPKvS5_S5_S5_, symObjAddr: 0x764, symBinAddr: 0x100001EE0, symSize: 0x20 }
  - { offsetInCU: 0x9AEE, offset: 0x9AEE, size: 0x8, addend: 0x0, symName: __ZNKSt3__16vectorIyNS_9allocatorIyEEE4dataB7v160006Ev, symObjAddr: 0x784, symBinAddr: 0x100001F00, symSize: 0x28 }
  - { offsetInCU: 0x9B13, offset: 0x9B13, size: 0x8, addend: 0x0, symName: __ZNKSt3__16vectorIyNS_9allocatorIyEEE4sizeB7v160006Ev, symObjAddr: 0x7AC, symBinAddr: 0x100001F28, symSize: 0x28 }
  - { offsetInCU: 0x9B38, offset: 0x9B38, size: 0x8, addend: 0x0, symName: __ZNSt3__16vectorIyNS_9allocatorIyEEE22__base_destruct_at_endB7v160006EPy, symObjAddr: 0x7E8, symBinAddr: 0x100001F64, symSize: 0xA0 }
  - { offsetInCU: 0x9B7C, offset: 0x9B7C, size: 0x8, addend: 0x0, symName: __ZNSt3__116allocator_traitsINS_9allocatorIyEEE7destroyB7v160006IyvEEvRS2_PT_, symObjAddr: 0x888, symBinAddr: 0x100002004, symSize: 0x2C }
  - { offsetInCU: 0x9BB9, offset: 0x9BB9, size: 0x8, addend: 0x0, symName: __ZNSt3__19allocatorIyE7destroyB7v160006EPy, symObjAddr: 0x8B4, symBinAddr: 0x100002030, symSize: 0x14 }
  - { offsetInCU: 0x9BEC, offset: 0x9BEC, size: 0x8, addend: 0x0, symName: __ZNSt3__19allocatorIyE10deallocateB7v160006EPym, symObjAddr: 0x8C8, symBinAddr: 0x100002044, symSize: 0x70 }
  - { offsetInCU: 0x9C2D, offset: 0x9C2D, size: 0x8, addend: 0x0, symName: __ZNSt3__117__compressed_pairIPyNS_9allocatorIyEEE6secondB7v160006Ev, symObjAddr: 0x9C0, symBinAddr: 0x10000213C, symSize: 0x24 }
  - { offsetInCU: 0x9C52, offset: 0x9C52, size: 0x8, addend: 0x0, symName: __ZNSt3__122__compressed_pair_elemINS_9allocatorIyEELi1ELb1EE5__getB7v160006Ev, symObjAddr: 0x9E4, symBinAddr: 0x100002160, symSize: 0x14 }
  - { offsetInCU: 0x9C77, offset: 0x9C77, size: 0x8, addend: 0x0, symName: __ZNKSt3__16vectorIyNS_9allocatorIyEEE9__end_capB7v160006Ev, symObjAddr: 0x9F8, symBinAddr: 0x100002174, symSize: 0x28 }
  - { offsetInCU: 0x9C9C, offset: 0x9C9C, size: 0x8, addend: 0x0, symName: __ZNKSt3__117__compressed_pairIPyNS_9allocatorIyEEE5firstB7v160006Ev, symObjAddr: 0xA20, symBinAddr: 0x10000219C, symSize: 0x24 }
  - { offsetInCU: 0x9CC1, offset: 0x9CC1, size: 0x8, addend: 0x0, symName: __ZNKSt3__122__compressed_pair_elemIPyLi0ELb0EE5__getB7v160006Ev, symObjAddr: 0xA44, symBinAddr: 0x1000021C0, symSize: 0x14 }
  - { offsetInCU: 0x9CE6, offset: 0x9CE6, size: 0x8, addend: 0x0, symName: __ZNSt3__16vectorIyNS_9allocatorIyEEE9__end_capB7v160006Ev, symObjAddr: 0xA58, symBinAddr: 0x1000021D4, symSize: 0x28 }
  - { offsetInCU: 0x9D10, offset: 0x9D10, size: 0x8, addend: 0x0, symName: __ZNSt3__16vectorIyNS_9allocatorIyEEE22__construct_one_at_endB7v160006IJyEEEvDpOT_, symObjAddr: 0xA80, symBinAddr: 0x1000021FC, symSize: 0x98 }
  - { offsetInCU: 0x9D5E, offset: 0x9D5E, size: 0x8, addend: 0x0, symName: __ZNSt3__16vectorIyNS_9allocatorIyEEE21__push_back_slow_pathIyEEvOT_, symObjAddr: 0xB18, symBinAddr: 0x100002294, symSize: 0xE0 }
  - { offsetInCU: 0x9DBD, offset: 0x9DBD, size: 0x8, addend: 0x0, symName: __ZNSt3__117__compressed_pairIPyNS_9allocatorIyEEE5firstB7v160006Ev, symObjAddr: 0xBF8, symBinAddr: 0x100002374, symSize: 0x24 }
  - { offsetInCU: 0x9DE2, offset: 0x9DE2, size: 0x8, addend: 0x0, symName: __ZNSt3__122__compressed_pair_elemIPyLi0ELb0EE5__getB7v160006Ev, symObjAddr: 0xC1C, symBinAddr: 0x100002398, symSize: 0x14 }
  - { offsetInCU: 0x9E20, offset: 0x9E20, size: 0x8, addend: 0x0, symName: __ZNSt3__16vectorIyNS_9allocatorIyEEE21_ConstructTransactionC1B7v160006ERS3_m, symObjAddr: 0xC30, symBinAddr: 0x1000023AC, symSize: 0x3C }
  - { offsetInCU: 0x9E67, offset: 0x9E67, size: 0x8, addend: 0x0, symName: __ZNSt3__116allocator_traitsINS_9allocatorIyEEE9constructB7v160006IyJyEvEEvRS2_PT_DpOT0_, symObjAddr: 0xC6C, symBinAddr: 0x1000023E8, symSize: 0x34 }
  - { offsetInCU: 0x9EBE, offset: 0x9EBE, size: 0x8, addend: 0x0, symName: __ZNSt3__16vectorIyNS_9allocatorIyEEE21_ConstructTransactionD1B7v160006Ev, symObjAddr: 0xCA0, symBinAddr: 0x10000241C, symSize: 0x2C }
  - { offsetInCU: 0x9EE7, offset: 0x9EE7, size: 0x8, addend: 0x0, symName: __ZNSt3__16vectorIyNS_9allocatorIyEEE21_ConstructTransactionC2B7v160006ERS3_m, symObjAddr: 0xCCC, symBinAddr: 0x100002448, symSize: 0x44 }
  - { offsetInCU: 0x9F2E, offset: 0x9F2E, size: 0x8, addend: 0x0, symName: __ZNSt3__19allocatorIyE9constructB7v160006IyJyEEEvPT_DpOT0_, symObjAddr: 0xD10, symBinAddr: 0x10000248C, symSize: 0x28 }
  - { offsetInCU: 0x9F83, offset: 0x9F83, size: 0x8, addend: 0x0, symName: __ZNSt3__16vectorIyNS_9allocatorIyEEE21_ConstructTransactionD2B7v160006Ev, symObjAddr: 0xD38, symBinAddr: 0x1000024B4, symSize: 0x20 }
  - { offsetInCU: 0x9FAB, offset: 0x9FAB, size: 0x8, addend: 0x0, symName: __ZNKSt3__16vectorIyNS_9allocatorIyEEE11__recommendB7v160006Em, symObjAddr: 0xD58, symBinAddr: 0x1000024D4, symSize: 0xB4 }
  - { offsetInCU: 0xA001, offset: 0xA001, size: 0x8, addend: 0x0, symName: __ZNSt3__114__split_bufferIyRNS_9allocatorIyEEEC1EmmS3_, symObjAddr: 0xE0C, symBinAddr: 0x100002588, symSize: 0x44 }
  - { offsetInCU: 0xA056, offset: 0xA056, size: 0x8, addend: 0x0, symName: __ZNSt3__114__split_bufferIyRNS_9allocatorIyEEED1Ev, symObjAddr: 0xF68, symBinAddr: 0x1000026E4, symSize: 0x2C }
  - { offsetInCU: 0xA080, offset: 0xA080, size: 0x8, addend: 0x0, symName: __ZNKSt3__16vectorIyNS_9allocatorIyEEE8max_sizeEv, symObjAddr: 0xF94, symBinAddr: 0x100002710, symSize: 0x74 }
  - { offsetInCU: 0xA0A7, offset: 0xA0A7, size: 0x8, addend: 0x0, symName: __ZNKSt3__16vectorIyNS_9allocatorIyEEE20__throw_length_errorB7v160006Ev, symObjAddr: 0x1008, symBinAddr: 0x100002784, symSize: 0x1C }
  - { offsetInCU: 0xA0D6, offset: 0xA0D6, size: 0x8, addend: 0x0, symName: __ZNSt3__116allocator_traitsINS_9allocatorIyEEE8max_sizeB7v160006IS2_vEEmRKS2_, symObjAddr: 0x107C, symBinAddr: 0x1000027F8, symSize: 0x24 }
  - { offsetInCU: 0xA104, offset: 0xA104, size: 0x8, addend: 0x0, symName: __ZNKSt3__16vectorIyNS_9allocatorIyEEE7__allocB7v160006Ev, symObjAddr: 0x10A0, symBinAddr: 0x10000281C, symSize: 0x28 }
  - { offsetInCU: 0xA129, offset: 0xA129, size: 0x8, addend: 0x0, symName: __ZNSt3__114numeric_limitsIlE3maxB7v160006Ev, symObjAddr: 0x10C8, symBinAddr: 0x100002844, symSize: 0x14 }
  - { offsetInCU: 0xA151, offset: 0xA151, size: 0x8, addend: 0x0, symName: __ZNKSt3__16__lessImmEclB7v160006ERKmS3_, symObjAddr: 0x1130, symBinAddr: 0x1000028AC, symSize: 0x34 }
  - { offsetInCU: 0xA192, offset: 0xA192, size: 0x8, addend: 0x0, symName: __ZNKSt3__19allocatorIyE8max_sizeB7v160006Ev, symObjAddr: 0x1164, symBinAddr: 0x1000028E0, symSize: 0x14 }
  - { offsetInCU: 0xA1B7, offset: 0xA1B7, size: 0x8, addend: 0x0, symName: __ZNKSt3__117__compressed_pairIPyNS_9allocatorIyEEE6secondB7v160006Ev, symObjAddr: 0x1178, symBinAddr: 0x1000028F4, symSize: 0x24 }
  - { offsetInCU: 0xA1DC, offset: 0xA1DC, size: 0x8, addend: 0x0, symName: __ZNKSt3__122__compressed_pair_elemINS_9allocatorIyEELi1ELb1EE5__getB7v160006Ev, symObjAddr: 0x119C, symBinAddr: 0x100002918, symSize: 0x14 }
  - { offsetInCU: 0xA201, offset: 0xA201, size: 0x8, addend: 0x0, symName: __ZNSt3__123__libcpp_numeric_limitsIlLb1EE3maxB7v160006Ev, symObjAddr: 0x11B0, symBinAddr: 0x10000292C, symSize: 0x8 }
  - { offsetInCU: 0xA215, offset: 0xA215, size: 0x8, addend: 0x0, symName: __ZNSt12length_errorC1B7v160006EPKc, symObjAddr: 0x121C, symBinAddr: 0x100002998, symSize: 0x34 }
  - { offsetInCU: 0xA24C, offset: 0xA24C, size: 0x8, addend: 0x0, symName: __ZNSt12length_errorC2B7v160006EPKc, symObjAddr: 0x1250, symBinAddr: 0x1000029CC, symSize: 0x4C }
  - { offsetInCU: 0xA283, offset: 0xA283, size: 0x8, addend: 0x0, symName: __ZNSt3__114__split_bufferIyRNS_9allocatorIyEEEC2EmmS3_, symObjAddr: 0x12F0, symBinAddr: 0x100002A6C, symSize: 0xD4 }
  - { offsetInCU: 0xA2F7, offset: 0xA2F7, size: 0x8, addend: 0x0, symName: __ZNSt3__117__compressed_pairIPyRNS_9allocatorIyEEEC1B7v160006IDnS4_EEOT_OT0_, symObjAddr: 0x13C4, symBinAddr: 0x100002B40, symSize: 0x3C }
  - { offsetInCU: 0xA34E, offset: 0xA34E, size: 0x8, addend: 0x0, symName: __ZNSt3__114__split_bufferIyRNS_9allocatorIyEEE7__allocB7v160006Ev, symObjAddr: 0x1440, symBinAddr: 0x100002BBC, symSize: 0x28 }
  - { offsetInCU: 0xA373, offset: 0xA373, size: 0x8, addend: 0x0, symName: __ZNSt3__114__split_bufferIyRNS_9allocatorIyEEE9__end_capB7v160006Ev, symObjAddr: 0x1468, symBinAddr: 0x100002BE4, symSize: 0x28 }
  - { offsetInCU: 0xA398, offset: 0xA398, size: 0x8, addend: 0x0, symName: __ZNSt3__117__compressed_pairIPyRNS_9allocatorIyEEEC2B7v160006IDnS4_EEOT_OT0_, symObjAddr: 0x1490, symBinAddr: 0x100002C0C, symSize: 0x48 }
  - { offsetInCU: 0xA3EF, offset: 0xA3EF, size: 0x8, addend: 0x0, symName: __ZNSt3__122__compressed_pair_elemIRNS_9allocatorIyEELi1ELb0EEC2B7v160006IS3_vEEOT_, symObjAddr: 0x14D8, symBinAddr: 0x100002C54, symSize: 0x20 }
  - { offsetInCU: 0xA430, offset: 0xA430, size: 0x8, addend: 0x0, symName: __ZNSt3__19allocatorIyE8allocateB7v160006Em, symObjAddr: 0x14F8, symBinAddr: 0x100002C74, symSize: 0x84 }
  - { offsetInCU: 0xA463, offset: 0xA463, size: 0x8, addend: 0x0, symName: __ZNSt3__117__compressed_pairIPyRNS_9allocatorIyEEE6secondB7v160006Ev, symObjAddr: 0x15FC, symBinAddr: 0x100002D78, symSize: 0x28 }
  - { offsetInCU: 0xA488, offset: 0xA488, size: 0x8, addend: 0x0, symName: __ZNSt3__122__compressed_pair_elemIRNS_9allocatorIyEELi1ELb0EE5__getB7v160006Ev, symObjAddr: 0x1624, symBinAddr: 0x100002DA0, symSize: 0x18 }
  - { offsetInCU: 0xA4AD, offset: 0xA4AD, size: 0x8, addend: 0x0, symName: __ZNSt3__117__compressed_pairIPyRNS_9allocatorIyEEE5firstB7v160006Ev, symObjAddr: 0x163C, symBinAddr: 0x100002DB8, symSize: 0x24 }
  - { offsetInCU: 0xA4D2, offset: 0xA4D2, size: 0x8, addend: 0x0, symName: __ZNSt3__116reverse_iteratorIPyEC1B7v160006ES1_, symObjAddr: 0x1748, symBinAddr: 0x100002EC4, symSize: 0x34 }
  - { offsetInCU: 0xA509, offset: 0xA509, size: 0x8, addend: 0x0, symName: __ZNKSt3__116reverse_iteratorIPyE4baseB7v160006Ev, symObjAddr: 0x177C, symBinAddr: 0x100002EF8, symSize: 0x18 }
  - { offsetInCU: 0xA52E, offset: 0xA52E, size: 0x8, addend: 0x0, symName: __ZNKSt3__16vectorIyNS_9allocatorIyEEE14__annotate_newB7v160006Em, symObjAddr: 0x17D0, symBinAddr: 0x100002F4C, symSize: 0xAC }
  - { offsetInCU: 0xA562, offset: 0xA562, size: 0x8, addend: 0x0, symName: __ZNKSt3__116reverse_iteratorIPyEdeB7v160006Ev, symObjAddr: 0x1924, symBinAddr: 0x1000030A0, symSize: 0x28 }
  - { offsetInCU: 0xA595, offset: 0xA595, size: 0x8, addend: 0x0, symName: __ZNSt3__116reverse_iteratorIPyEppB7v160006Ev, symObjAddr: 0x194C, symBinAddr: 0x1000030C8, symSize: 0x20 }
  - { offsetInCU: 0xA5BF, offset: 0xA5BF, size: 0x8, addend: 0x0, symName: __ZNSt3__119__to_address_helperINS_16reverse_iteratorIPyEEvE6__callB7v160006ERKS3_, symObjAddr: 0x19E4, symBinAddr: 0x100003160, symSize: 0x4C }
  - { offsetInCU: 0xA5E2, offset: 0xA5E2, size: 0x8, addend: 0x0, symName: __ZNKSt3__116reverse_iteratorIPyEptB7v160006Ev, symObjAddr: 0x1A30, symBinAddr: 0x1000031AC, symSize: 0x24 }
  - { offsetInCU: 0xA62A, offset: 0xA62A, size: 0x8, addend: 0x0, symName: __ZNKSt3__111__move_loopINS_17_ClassicAlgPolicyEEclB7v160006INS_16reverse_iteratorIPyEES6_S6_EENS_4pairIT_T1_EES8_T0_S9_, symObjAddr: 0x1CE4, symBinAddr: 0x100003460, symSize: 0xA0 }
  - { offsetInCU: 0xA694, offset: 0xA694, size: 0x8, addend: 0x0, symName: __ZNSt3__18_IterOpsINS_17_ClassicAlgPolicyEE11__iter_moveB7v160006IRNS_16reverse_iteratorIPyEEEENS_9enable_ifIXsr12is_referenceIDTdeclsr3stdE7declvalIRT_EEEEE5valueEDTclsr3stdE4movedeclsr3stdE7declvalISA_EEEEE4typeEOS9_, symObjAddr: 0x1EE4, symBinAddr: 0x100003660, symSize: 0x28 }
  - { offsetInCU: 0xA6C0, offset: 0xA6C0, size: 0x8, addend: 0x0, symName: __ZNSt3__18_IterOpsINS_17_ClassicAlgPolicyEE25__validate_iter_referenceB7v160006IRNS_16reverse_iteratorIPyEEEEvv, symObjAddr: 0x1F0C, symBinAddr: 0x100003688, symSize: 0x4 }
  - { offsetInCU: 0xA6DE, offset: 0xA6DE, size: 0x8, addend: 0x0, symName: __ZNSt3__118__unwrap_iter_implINS_16reverse_iteratorIPyEELb0EE8__unwrapB7v160006ES3_, symObjAddr: 0x1F10, symBinAddr: 0x10000368C, symSize: 0x24 }
  - { offsetInCU: 0xA701, offset: 0xA701, size: 0x8, addend: 0x0, symName: __ZNSt3__14pairINS_16reverse_iteratorIPyEES3_EC1B7v160006ERKS3_S6_, symObjAddr: 0x1F34, symBinAddr: 0x1000036B0, symSize: 0x3C }
  - { offsetInCU: 0xA746, offset: 0xA746, size: 0x8, addend: 0x0, symName: __ZNSt3__14pairINS_16reverse_iteratorIPyEES3_EC2B7v160006ERKS3_S6_, symObjAddr: 0x1F70, symBinAddr: 0x1000036EC, symSize: 0x34 }
  - { offsetInCU: 0xA78B, offset: 0xA78B, size: 0x8, addend: 0x0, symName: __ZNSt3__118__unwrap_iter_implINS_16reverse_iteratorIPyEELb0EE8__rewrapB7v160006ES3_S3_, symObjAddr: 0x1FA4, symBinAddr: 0x100003720, symSize: 0x2C }
  - { offsetInCU: 0xA7B9, offset: 0xA7B9, size: 0x8, addend: 0x0, symName: __ZNSt3__116reverse_iteratorIPyEC2B7v160006ES1_, symObjAddr: 0x1FD0, symBinAddr: 0x10000374C, symSize: 0x28 }
  - { offsetInCU: 0xA7F0, offset: 0xA7F0, size: 0x8, addend: 0x0, symName: __ZNSt3__114__split_bufferIyRNS_9allocatorIyEEED2Ev, symObjAddr: 0x1FF8, symBinAddr: 0x100003774, symSize: 0x80 }
  - { offsetInCU: 0xA81B, offset: 0xA81B, size: 0x8, addend: 0x0, symName: __ZNSt3__114__split_bufferIyRNS_9allocatorIyEEE5clearB7v160006Ev, symObjAddr: 0x2078, symBinAddr: 0x1000037F4, symSize: 0x28 }
  - { offsetInCU: 0xA840, offset: 0xA840, size: 0x8, addend: 0x0, symName: __ZNKSt3__114__split_bufferIyRNS_9allocatorIyEEE8capacityB7v160006Ev, symObjAddr: 0x20A0, symBinAddr: 0x10000381C, symSize: 0x40 }
  - { offsetInCU: 0xA865, offset: 0xA865, size: 0x8, addend: 0x0, symName: __ZNSt3__114__split_bufferIyRNS_9allocatorIyEEE17__destruct_at_endB7v160006EPy, symObjAddr: 0x20E0, symBinAddr: 0x10000385C, symSize: 0x2C }
  - { offsetInCU: 0xA897, offset: 0xA897, size: 0x8, addend: 0x0, symName: __ZNSt3__114__split_bufferIyRNS_9allocatorIyEEE17__destruct_at_endB7v160006EPyNS_17integral_constantIbLb0EEE, symObjAddr: 0x210C, symBinAddr: 0x100003888, symSize: 0x94 }
  - { offsetInCU: 0xA8D7, offset: 0xA8D7, size: 0x8, addend: 0x0, symName: __ZNKSt3__114__split_bufferIyRNS_9allocatorIyEEE9__end_capB7v160006Ev, symObjAddr: 0x21A0, symBinAddr: 0x10000391C, symSize: 0x28 }
  - { offsetInCU: 0xA8FC, offset: 0xA8FC, size: 0x8, addend: 0x0, symName: __ZNKSt3__117__compressed_pairIPyRNS_9allocatorIyEEE5firstB7v160006Ev, symObjAddr: 0x21C8, symBinAddr: 0x100003944, symSize: 0x24 }
  - { offsetInCU: 0xA921, offset: 0xA921, size: 0x8, addend: 0x0, symName: __ZNSt3__16vectorIyNS_9allocatorIyEEE22__construct_one_at_endB7v160006IJRKyEEEvDpOT_, symObjAddr: 0x21EC, symBinAddr: 0x100003968, symSize: 0x98 }
  - { offsetInCU: 0xA96F, offset: 0xA96F, size: 0x8, addend: 0x0, symName: __ZNSt3__16vectorIyNS_9allocatorIyEEE21__push_back_slow_pathIRKyEEvOT_, symObjAddr: 0x2284, symBinAddr: 0x100003A00, symSize: 0xE0 }
  - { offsetInCU: 0xA9CE, offset: 0xA9CE, size: 0x8, addend: 0x0, symName: __ZNSt3__116allocator_traitsINS_9allocatorIyEEE9constructB7v160006IyJRKyEvEEvRS2_PT_DpOT0_, symObjAddr: 0x2364, symBinAddr: 0x100003AE0, symSize: 0x34 }
  - { offsetInCU: 0xAA25, offset: 0xAA25, size: 0x8, addend: 0x0, symName: __ZNSt3__19allocatorIyE9constructB7v160006IyJRKyEEEvPT_DpOT0_, symObjAddr: 0x2398, symBinAddr: 0x100003B14, symSize: 0x28 }
...
